target datalayout = "e-m:e-p270:32:32-p271:32:32-p272:64:64-i64:64-i128:128-f80:128-n8:16:32:64-S128"
target triple = "x86_64-pc-linux-gnu"

@proto_register_vcdu.ett = internal global [3 x ptr] [ptr @ett_vcdu, ptr @ett_smex, ptr @ett_vcduh], align 16
@.str.89 = private unnamed_addr constant [5 x i8] c"VCDU\00", align 1
@.str.90 = private unnamed_addr constant [5 x i8] c"vcdu\00", align 1
@proto_vcdu = internal global i32 0, align 4
@vcdu_handle = internal global ptr null, align 8
@.str.91 = private unnamed_addr constant [24 x i8] c"Bitstream Channel Table\00", align 1
@.str.92 = private unnamed_addr constant [24 x i8] c"vcdu_bitstream_channels\00", align 1
@uat_bitchannels = internal global ptr null, align 8
@num_channels_uat = internal global i32 0, align 4
@vcdu_uat = internal global ptr null, align 8
@.str.93 = private unnamed_addr constant [19 x i8] c"bitstream_channels\00", align 1

; Function Attrs: null_pointer_is_valid sspstrong uwtable
define hidden void @proto_register_vcdu() #0 {
  %1 = alloca ptr, align 8
  %2 = alloca ptr, align 8
  call void @llvm.lifetime.start.p0(i64 8, ptr %1) #8
  call void @llvm.lifetime.start.p0(i64 8, ptr %2) #8
  %3 = call i32 @proto_register_protocol(ptr noundef @.str.89, ptr noundef @.str.89, ptr noundef @.str.90)
  store i32 %3, ptr @proto_vcdu, align 4
  %4 = load i32, ptr @proto_vcdu, align 4
  call void @proto_register_field_array(i32 noundef %4, ptr noundef @proto_register_vcdu.hf, i32 noundef 31)
  call void @proto_register_subtree_array(ptr noundef @proto_register_vcdu.ett, i32 noundef 3)
  %5 = load i32, ptr @proto_vcdu, align 4
  %6 = call ptr @expert_register_protocol(i32 noundef %5)
  store ptr %6, ptr %2, align 8
  %7 = load ptr, ptr %2, align 8
  call void @expert_register_field_array(ptr noundef %7, ptr noundef @proto_register_vcdu.ei, i32 noundef 1)
  %8 = load i32, ptr @proto_vcdu, align 4
  %9 = call ptr @register_dissector(ptr noundef @.str.90, ptr noundef @dissect_vcdu, i32 noundef %8)
  store ptr %9, ptr @vcdu_handle, align 8
  %10 = load i32, ptr @proto_vcdu, align 4
  %11 = call ptr @prefs_register_protocol(i32 noundef %10, ptr noundef @vcdu_prefs_apply_cb)
  store ptr %11, ptr %1, align 8
  %12 = call ptr @uat_new(ptr noundef @.str.91, i64 noundef 4, ptr noundef @.str.92, i1 noundef zeroext true, ptr noundef @uat_bitchannels, ptr noundef @num_channels_uat, i32 noundef 1, ptr noundef null, ptr noundef null, ptr noundef @vcdu_uat_data_update_cb, ptr noundef null, ptr noundef null, ptr noundef null, ptr noundef @proto_register_vcdu.vcdu_uat_flds)
  store ptr %12, ptr @vcdu_uat, align 8
  %13 = load ptr, ptr %1, align 8
  %14 = load ptr, ptr @vcdu_uat, align 8
  call void @prefs_register_uat_preference(ptr noundef %13, ptr noundef @.str.93, ptr noundef @.str.91, ptr noundef @.str.91, ptr noundef %14)
  call void @llvm.lifetime.end.p0(i64 8, ptr %2) #8
  call void @llvm.lifetime.end.p0(i64 8, ptr %1) #8
  ret void
}