; Function Attrs: null_pointer_is_valid sspstrong uwtable
define hidden void @proto_register_vcdu() local_unnamed_addr #0 {
  %1 = tail call i32 @proto_register_protocol(ptr noundef nonnull @.str.89, ptr noundef nonnull @.str.89, ptr noundef nonnull @.str.90)
  store i32 %1, ptr @proto_vcdu, align 4
  tail call void @proto_register_field_array(i32 noundef %1, ptr noundef nonnull @proto_register_vcdu.hf, i32 noundef 31)
  tail call void @proto_register_subtree_array(ptr noundef nonnull @proto_register_vcdu.ett, i32 noundef 3)
  %2 = load i32, ptr @proto_vcdu, align 4
  %3 = tail call ptr @expert_register_protocol(i32 noundef %2)
  tail call void @expert_register_field_array(ptr noundef %3, ptr noundef nonnull @proto_register_vcdu.ei, i32 noundef 1)
  %4 = load i32, ptr @proto_vcdu, align 4
  %5 = tail call ptr @register_dissector(ptr noundef nonnull @.str.90, ptr noundef nonnull @dissect_vcdu, i32 noundef %4)
  store ptr %5, ptr @vcdu_handle, align 8
  %6 = load i32, ptr @proto_vcdu, align 4
  %7 = tail call ptr @prefs_register_protocol(i32 noundef %6, ptr noundef nonnull @vcdu_prefs_apply_cb)
  %8 = tail call ptr @uat_new(ptr noundef nonnull @.str.91, i64 noundef 4, ptr noundef nonnull @.str.92, i1 noundef zeroext true, ptr noundef nonnull @uat_bitchannels, ptr noundef nonnull @num_channels_uat, i32 noundef 1, ptr noundef null, ptr noundef null, ptr noundef nonnull @vcdu_uat_data_update_cb, ptr noundef null, ptr noundef null, ptr noundef null, ptr noundef nonnull @proto_register_vcdu.vcdu_uat_flds)
  store ptr %8, ptr @vcdu_uat, align 8
  tail call void @prefs_register_uat_preference(ptr noundef %7, ptr noundef nonnull @.str.93, ptr noundef nonnull @.str.91, ptr noundef nonnull @.str.91, ptr noundef %8)
  ret void
}